target datalayout = "e-m:e-p270:32:32-p271:32:32-p272:64:64-i64:64-i128:128-f80:128-n8:16:32:64-S128"
target triple = "x86_64-unknown-linux-gnu"

%struct.Token = type { i32, ptr, i64, x86_fp80, ptr, i32, ptr, ptr, ptr, ptr, i32, i32, i8, i8, ptr, ptr }
%struct.Type = type { i32, i32, i32, i8, i8, ptr, ptr, ptr, ptr, i32, ptr, ptr, ptr, i8, i8, ptr, ptr, i8, ptr }

@.str.23 = private unnamed_addr constant [2 x i8] c"(\00", align 1
@.str.24 = private unnamed_addr constant [2 x i8] c")\00", align 1
@.str.56 = private unnamed_addr constant [2 x i8] c"[\00", align 1

; Function Attrs: nounwind uwtable
define internal ptr @type_suffix(ptr noundef %rest, ptr noundef %tok, ptr noundef %ty) #0 {
entry:
  %retval = alloca ptr, align 8
  %rest.addr = alloca ptr, align 8
  %tok.addr = alloca ptr, align 8
  %ty.addr = alloca ptr, align 8
  store ptr %rest, ptr %rest.addr, align 8
  store ptr %tok, ptr %tok.addr, align 8
  store ptr %ty, ptr %ty.addr, align 8
  %0 = load ptr, ptr %tok.addr, align 8
  %call = call zeroext i1 @equal(ptr noundef %0, ptr noundef @.str.23)
  br i1 %call, label %if.then, label %if.end

if.then:                                          ; preds = %entry
  %1 = load ptr, ptr %rest.addr, align 8
  %2 = load ptr, ptr %tok.addr, align 8
  %next = getelementptr inbounds %struct.Token, ptr %2, i32 0, i32 1
  %3 = load ptr, ptr %next, align 8
  %4 = load ptr, ptr %ty.addr, align 8
  %call1 = call ptr @func_params(ptr noundef %1, ptr noundef %3, ptr noundef %4)
  store ptr %call1, ptr %retval, align 8
  br label %return

if.end:                                           ; preds = %entry
  %5 = load ptr, ptr %tok.addr, align 8
  %call2 = call zeroext i1 @equal(ptr noundef %5, ptr noundef @.str.56)
  br i1 %call2, label %if.then3, label %if.end6

if.then3:                                         ; preds = %if.end
  %6 = load ptr, ptr %rest.addr, align 8
  %7 = load ptr, ptr %tok.addr, align 8
  %next4 = getelementptr inbounds %struct.Token, ptr %7, i32 0, i32 1
  %8 = load ptr, ptr %next4, align 8
  %9 = load ptr, ptr %ty.addr, align 8
  %call5 = call ptr @array_dimensions(ptr noundef %6, ptr noundef %8, ptr noundef %9)
  store ptr %call5, ptr %retval, align 8
  br label %return

if.end6:                                          ; preds = %if.end
  %10 = load ptr, ptr %tok.addr, align 8
  %11 = load ptr, ptr %rest.addr, align 8
  store ptr %10, ptr %11, align 8
  %12 = load ptr, ptr %ty.addr, align 8
  store ptr %12, ptr %retval, align 8
  br label %return

return:                                           ; preds = %if.end6, %if.then3, %if.then
  %13 = load ptr, ptr %retval, align 8
  ret ptr %13
}

; Function Attrs: nounwind uwtable
define internal ptr @declarator(ptr noundef %rest, ptr noundef %tok, ptr noundef %ty) #0 {
entry:
  %retval = alloca ptr, align 8
  %rest.addr = alloca ptr, align 8
  %tok.addr = alloca ptr, align 8
  %ty.addr = alloca ptr, align 8
  %start = alloca ptr, align 8
  %dummy = alloca %struct.Type, align 8
  %name = alloca ptr, align 8
  %name_pos = alloca ptr, align 8
  store ptr %rest, ptr %rest.addr, align 8
  store ptr %tok, ptr %tok.addr, align 8
  store ptr %ty, ptr %ty.addr, align 8
  %0 = load ptr, ptr %tok.addr, align 8
  %1 = load ptr, ptr %ty.addr, align 8
  %call = call ptr @pointers(ptr noundef %tok.addr, ptr noundef %0, ptr noundef %1)
  store ptr %call, ptr %ty.addr, align 8
  %2 = load ptr, ptr %tok.addr, align 8
  %call1 = call zeroext i1 @equal(ptr noundef %2, ptr noundef @.str.23)
  br i1 %call1, label %if.then, label %if.end

if.then:                                          ; preds = %entry
  %3 = load ptr, ptr %tok.addr, align 8
  store ptr %3, ptr %start, align 8
  call void @llvm.memset.p0.i64(ptr align 8 %dummy, i8 0, i64 120, i1 false)
  %4 = load ptr, ptr %start, align 8
  %next = getelementptr inbounds %struct.Token, ptr %4, i32 0, i32 1
  %5 = load ptr, ptr %next, align 8
  %call2 = call ptr @declarator(ptr noundef %tok.addr, ptr noundef %5, ptr noundef %dummy)
  %6 = load ptr, ptr %tok.addr, align 8
  %call3 = call ptr @skip(ptr noundef %6, ptr noundef @.str.24)
  store ptr %call3, ptr %tok.addr, align 8
  %7 = load ptr, ptr %rest.addr, align 8
  %8 = load ptr, ptr %tok.addr, align 8
  %9 = load ptr, ptr %ty.addr, align 8
  %call4 = call ptr @type_suffix(ptr noundef %7, ptr noundef %8, ptr noundef %9)
  store ptr %call4, ptr %ty.addr, align 8
  %10 = load ptr, ptr %start, align 8
  %next5 = getelementptr inbounds %struct.Token, ptr %10, i32 0, i32 1
  %11 = load ptr, ptr %next5, align 8
  %12 = load ptr, ptr %ty.addr, align 8
  %call6 = call ptr @declarator(ptr noundef %tok.addr, ptr noundef %11, ptr noundef %12)
  store ptr %call6, ptr %retval, align 8
  br label %return

if.end:                                           ; preds = %entry
  store ptr null, ptr %name, align 8
  %13 = load ptr, ptr %tok.addr, align 8
  store ptr %13, ptr %name_pos, align 8
  %14 = load ptr, ptr %tok.addr, align 8
  %kind = getelementptr inbounds %struct.Token, ptr %14, i32 0, i32 0
  %15 = load i32, ptr %kind, align 16
  %cmp = icmp eq i32 %15, 0
  br i1 %cmp, label %if.then7, label %if.end9

if.then7:                                         ; preds = %if.end
  %16 = load ptr, ptr %tok.addr, align 8
  store ptr %16, ptr %name, align 8
  %17 = load ptr, ptr %tok.addr, align 8
  %next8 = getelementptr inbounds %struct.Token, ptr %17, i32 0, i32 1
  %18 = load ptr, ptr %next8, align 8
  store ptr %18, ptr %tok.addr, align 8
  br label %if.end9

if.end9:                                          ; preds = %if.then7, %if.end
  %19 = load ptr, ptr %rest.addr, align 8
  %20 = load ptr, ptr %tok.addr, align 8
  %21 = load ptr, ptr %ty.addr, align 8
  %call10 = call ptr @type_suffix(ptr noundef %19, ptr noundef %20, ptr noundef %21)
  store ptr %call10, ptr %ty.addr, align 8
  %22 = load ptr, ptr %name, align 8
  %23 = load ptr, ptr %ty.addr, align 8
  %name11 = getelementptr inbounds %struct.Type, ptr %23, i32 0, i32 7
  store ptr %22, ptr %name11, align 8
  %24 = load ptr, ptr %name_pos, align 8
  %25 = load ptr, ptr %ty.addr, align 8
  %name_pos12 = getelementptr inbounds %struct.Type, ptr %25, i32 0, i32 8
  store ptr %24, ptr %name_pos12, align 8
  %26 = load ptr, ptr %ty.addr, align 8
  store ptr %26, ptr %retval, align 8
  br label %return

return:                                           ; preds = %if.end9, %if.then
  %27 = load ptr, ptr %retval, align 8
  ret ptr %27
}