; Function Attrs: nounwind uwtable
define internal fastcc ptr @declarator(ptr noundef %rest, ptr noundef %tok, ptr noundef %ty) unnamed_addr #0 {
entry:
  %tok.addr = alloca ptr, align 8
  %dummy = alloca %struct.Type, align 8
  store ptr %tok, ptr %tok.addr, align 8
  %call = call fastcc ptr @pointers(ptr noundef nonnull %tok.addr, ptr noundef %tok, ptr noundef %ty)
  %0 = load ptr, ptr %tok.addr, align 8
  %call1 = tail call zeroext i1 @equal(ptr noundef %0, ptr noundef nonnull @.str.23) #13
  br i1 %call1, label %if.then, label %if.end

if.then:                                          ; preds = %entry
  call void @llvm.memset.p0.i64(ptr noundef nonnull align 8 dereferenceable(120) %dummy, i8 0, i64 120, i1 false)
  %next = getelementptr inbounds %struct.Token, ptr %0, i64 0, i32 1
  %1 = load ptr, ptr %next, align 8
  %call2 = call fastcc ptr @declarator(ptr noundef nonnull %tok.addr, ptr noundef %1, ptr noundef nonnull %dummy)
  %2 = load ptr, ptr %tok.addr, align 8
  %call3 = call ptr @skip(ptr noundef %2, ptr noundef nonnull @.str.24) #13
  store ptr %call3, ptr %tok.addr, align 8
  %call.i = call zeroext i1 @equal(ptr noundef %call3, ptr noundef nonnull @.str.23) #13
  br i1 %call.i, label %if.then.i, label %if.end.i

if.then.i:                                        ; preds = %if.then
  %next.i = getelementptr inbounds %struct.Token, ptr %call3, i64 0, i32 1
  %3 = load ptr, ptr %next.i, align 8
  %call1.i = call fastcc ptr @func_params(ptr noundef %rest, ptr noundef %3, ptr noundef %call)
  br label %type_suffix.exit

if.end.i:                                         ; preds = %if.then
  %call2.i = call zeroext i1 @equal(ptr noundef %call3, ptr noundef nonnull @.str.56) #13
  br i1 %call2.i, label %if.then3.i, label %if.end6.i

if.then3.i:                                       ; preds = %if.end.i
  %next4.i = getelementptr inbounds %struct.Token, ptr %call3, i64 0, i32 1
  %4 = load ptr, ptr %next4.i, align 8
  %call5.i = call fastcc ptr @array_dimensions(ptr noundef %rest, ptr noundef %4, ptr noundef %call)
  br label %type_suffix.exit

if.end6.i:                                        ; preds = %if.end.i
  store ptr %call3, ptr %rest, align 8
  br label %type_suffix.exit

type_suffix.exit:                                 ; preds = %if.then.i, %if.then3.i, %if.end6.i
  %retval.0.i = phi ptr [ %call1.i, %if.then.i ], [ %call5.i, %if.then3.i ], [ %call, %if.end6.i ]
  %5 = load ptr, ptr %next, align 8
  %call6 = call fastcc ptr @declarator(ptr noundef nonnull %tok.addr, ptr noundef %5, ptr noundef %retval.0.i)
  br label %return

if.end:                                           ; preds = %entry
  %6 = load i32, ptr %0, align 16
  %cmp = icmp eq i32 %6, 0
  br i1 %cmp, label %if.then7, label %if.end9

if.then7:                                         ; preds = %if.end
  %next8 = getelementptr inbounds %struct.Token, ptr %0, i64 0, i32 1
  %7 = load ptr, ptr %next8, align 8
  br label %if.end9

if.end9:                                          ; preds = %if.then7, %if.end
  %8 = phi ptr [ %7, %if.then7 ], [ %0, %if.end ]
  %name.0 = phi ptr [ %0, %if.then7 ], [ null, %if.end ]
  %call.i9 = tail call zeroext i1 @equal(ptr noundef %8, ptr noundef nonnull @.str.23) #13
  br i1 %call.i9, label %if.then.i17, label %if.end.i10

if.then.i17:                                      ; preds = %if.end9
  %next.i18 = getelementptr inbounds %struct.Token, ptr %8, i64 0, i32 1
  %9 = load ptr, ptr %next.i18, align 8
  %call1.i19 = tail call fastcc ptr @func_params(ptr noundef %rest, ptr noundef %9, ptr noundef %call)
  br label %type_suffix.exit20

if.end.i10:                                       ; preds = %if.end9
  %call2.i11 = tail call zeroext i1 @equal(ptr noundef %8, ptr noundef nonnull @.str.56) #13
  br i1 %call2.i11, label %if.then3.i14, label %if.end6.i12

if.then3.i14:                                     ; preds = %if.end.i10
  %next4.i15 = getelementptr inbounds %struct.Token, ptr %8, i64 0, i32 1
  %10 = load ptr, ptr %next4.i15, align 8
  %call5.i16 = tail call fastcc ptr @array_dimensions(ptr noundef %rest, ptr noundef %10, ptr noundef %call)
  br label %type_suffix.exit20

if.end6.i12:                                      ; preds = %if.end.i10
  store ptr %8, ptr %rest, align 8
  br label %type_suffix.exit20

type_suffix.exit20:                               ; preds = %if.then.i17, %if.then3.i14, %if.end6.i12
  %retval.0.i13 = phi ptr [ %call1.i19, %if.then.i17 ], [ %call5.i16, %if.then3.i14 ], [ %call, %if.end6.i12 ]
  %name11 = getelementptr inbounds %struct.Type, ptr %retval.0.i13, i64 0, i32 7
  store ptr %name.0, ptr %name11, align 8
  %name_pos12 = getelementptr inbounds %struct.Type, ptr %retval.0.i13, i64 0, i32 8
  store ptr %0, ptr %name_pos12, align 8
  br label %return

return:                                           ; preds = %type_suffix.exit20, %type_suffix.exit
  %retval.0 = phi ptr [ %call6, %type_suffix.exit ], [ %retval.0.i13, %type_suffix.exit20 ]
  ret ptr %retval.0
}